target datalayout = "e-m:e-p270:32:32-p271:32:32-p272:64:64-i64:64-i128:128-f80:128-n8:16:32:64-S128"
target triple = "x86_64-pc-linux-gnu"

%struct.dt_pthread_mutex_t = type { %union.pthread_mutex_t }
%union.pthread_mutex_t = type { %struct.__pthread_mutex_s }
%struct.__pthread_mutex_s = type { i32, i32, i32, i32, i32, i16, i16, %struct.__pthread_internal_list }
%struct.__pthread_internal_list = type { ptr, ptr }
%struct._DtBauhausWidget = type { %struct._GtkDrawingArea, i32, ptr, ptr, i32, [256 x i8], i32, ptr, i32, ptr, ptr, i32, ptr, i32, i32, i32, %struct._GtkBorder, %struct._GtkBorder, i32, %union.dt_bauhaus_data_t }
%struct._GtkDrawingArea = type { %struct._GtkWidget, ptr }
%struct._GtkWidget = type { %struct._GObject, ptr }
%struct._GObject = type { %struct._GTypeInstance, i32, ptr }
%struct._GTypeInstance = type { ptr }
%struct._GtkBorder = type { i16, i16, i16, i16 }
%union.dt_bauhaus_data_t = type { %struct.dt_bauhaus_slider_data_t }
%struct.dt_bauhaus_slider_data_t = type { float, float, float, float, float, float, float, float, float, float, i32, ptr, i32, ptr, i8, ptr, float, float, i8, i32, ptr }
%struct.dt_iop_module_t = type { i32, ptr, ptr, ptr, ptr, ptr, ptr, ptr, ptr, ptr, ptr, ptr, ptr, ptr, ptr, ptr, ptr, ptr, ptr, ptr, ptr, ptr, ptr, ptr, ptr, ptr, ptr, ptr, ptr, ptr, ptr, ptr, ptr, ptr, ptr, ptr, ptr, ptr, ptr, ptr, ptr, ptr, ptr, ptr, ptr, ptr, ptr, ptr, ptr, ptr, ptr, ptr, ptr, ptr, ptr, ptr, ptr, [20 x i8], i32, i32, i32, i32, i32, i32, i32, [8 x i8], [4 x float], [4 x float], [4 x float], [4 x float], [4 x float], [4 x float], ptr, %struct.dt_dev_histogram_stats_t, [4 x i32], i32, i32, ptr, i32, i32, ptr, ptr, i32, ptr, %struct.dt_pthread_mutex_t, ptr, ptr, ptr, ptr, %struct.anon.4, ptr, ptr, ptr, ptr, ptr, ptr, ptr, i32, ptr, ptr, ptr, ptr, ptr, ptr, ptr, i32, ptr, i32, [128 x i8], i32, ptr, ptr, i32, [12 x i8] }
%struct.dt_dev_histogram_stats_t = type { i32, i64, i32, i32 }
%struct.anon.4 = type { %struct.anon.5, %struct.anon.6 }
%struct.anon.5 = type { ptr, ptr }
%struct.anon.6 = type { ptr, i32 }

@.str.45 = private unnamed_addr constant [1 x i8] zeroinitializer, align 1
@.str.46 = private unnamed_addr constant [15 x i8] c"bauhaus-slider\00", align 1

; Function Attrs: nounwind uwtable
define ptr @dt_bauhaus_slider_from_widget(ptr noundef %0, ptr noundef %1, float noundef %2, float noundef %3, float noundef %4, float noundef %5, i32 noundef %6, i32 noundef %7) #0 {
  %9 = alloca ptr, align 8
  %10 = alloca ptr, align 8
  %11 = alloca float, align 4
  %12 = alloca float, align 4
  %13 = alloca float, align 4
  %14 = alloca float, align 4
  %15 = alloca i32, align 4
  %16 = alloca i32, align 4
  %17 = alloca ptr, align 8
  store ptr %0, ptr %9, align 8, !tbaa !17
  store ptr %1, ptr %10, align 8, !tbaa !218
  store float %2, ptr %11, align 4, !tbaa !130
  store float %3, ptr %12, align 4, !tbaa !130
  store float %4, ptr %13, align 4, !tbaa !130
  store float %5, ptr %14, align 4, !tbaa !130
  store i32 %6, ptr %15, align 4, !tbaa !13
  store i32 %7, ptr %16, align 4, !tbaa !13
  %18 = load ptr, ptr %9, align 8, !tbaa !17
  %19 = getelementptr inbounds nuw %struct._DtBauhausWidget, ptr %18, i32 0, i32 1
  store i32 1, ptr %19, align 8, !tbaa !139
  %20 = load ptr, ptr %10, align 8, !tbaa !218
  %21 = icmp ne ptr %20, null
  br i1 %21, label %22, label %25

22:                                               ; preds = %8
  %23 = load ptr, ptr %10, align 8, !tbaa !218
  %24 = getelementptr inbounds nuw %struct.dt_iop_module_t, ptr %23, i32 0, i32 0
  br label %26

25:                                               ; preds = %8
  br label %26

26:                                               ; preds = %25, %22
  %27 = phi ptr [ %24, %22 ], [ null, %25 ]
  %28 = load ptr, ptr %9, align 8, !tbaa !17
  %29 = getelementptr inbounds nuw %struct._DtBauhausWidget, ptr %28, i32 0, i32 2
  store ptr %27, ptr %29, align 8, !tbaa !194
  call void @llvm.lifetime.start.p0(i64 8, ptr %17) #13
  %30 = load ptr, ptr %9, align 8, !tbaa !17
  %31 = getelementptr inbounds nuw %struct._DtBauhausWidget, ptr %30, i32 0, i32 19
  store ptr %31, ptr %17, align 8, !tbaa !140
  %32 = load float, ptr %11, align 4, !tbaa !130
  %33 = load ptr, ptr %17, align 8, !tbaa !140
  %34 = getelementptr inbounds nuw %struct.dt_bauhaus_slider_data_t, ptr %33, i32 0, i32 8
  store float %32, ptr %34, align 8, !tbaa !206
  %35 = load ptr, ptr %17, align 8, !tbaa !140
  %36 = getelementptr inbounds nuw %struct.dt_bauhaus_slider_data_t, ptr %35, i32 0, i32 6
  store float %32, ptr %36, align 8, !tbaa !207
  %37 = load ptr, ptr %17, align 8, !tbaa !140
  %38 = getelementptr inbounds nuw %struct.dt_bauhaus_slider_data_t, ptr %37, i32 0, i32 4
  store float %32, ptr %38, align 8, !tbaa !148
  %39 = load float, ptr %12, align 4, !tbaa !130
  %40 = load ptr, ptr %17, align 8, !tbaa !140
  %41 = getelementptr inbounds nuw %struct.dt_bauhaus_slider_data_t, ptr %40, i32 0, i32 9
  store float %39, ptr %41, align 4, !tbaa !208
  %42 = load ptr, ptr %17, align 8, !tbaa !140
  %43 = getelementptr inbounds nuw %struct.dt_bauhaus_slider_data_t, ptr %42, i32 0, i32 7
  store float %39, ptr %43, align 4, !tbaa !211
  %44 = load ptr, ptr %17, align 8, !tbaa !140
  %45 = getelementptr inbounds nuw %struct.dt_bauhaus_slider_data_t, ptr %44, i32 0, i32 5
  store float %39, ptr %45, align 4, !tbaa !147
  %46 = load float, ptr %13, align 4, !tbaa !130
  %47 = load ptr, ptr %17, align 8, !tbaa !140
  %48 = getelementptr inbounds nuw %struct.dt_bauhaus_slider_data_t, ptr %47, i32 0, i32 2
  store float %46, ptr %48, align 8, !tbaa !263
  %49 = load float, ptr %14, align 4, !tbaa !130
  %50 = load ptr, ptr %17, align 8, !tbaa !140
  %51 = getelementptr inbounds nuw %struct.dt_bauhaus_slider_data_t, ptr %50, i32 0, i32 3
  store float %49, ptr %51, align 4, !tbaa !213
  %52 = load float, ptr %14, align 4, !tbaa !130
  %53 = load float, ptr %11, align 4, !tbaa !130
  %54 = fsub reassoc nsz arcp contract afn float %52, %53
  %55 = load float, ptr %12, align 4, !tbaa !130
  %56 = load float, ptr %11, align 4, !tbaa !130
  %57 = fsub reassoc nsz arcp contract afn float %55, %56
  %58 = fdiv reassoc nsz arcp contract afn float %54, %57
  %59 = load ptr, ptr %17, align 8, !tbaa !140
  %60 = getelementptr inbounds nuw %struct.dt_bauhaus_slider_data_t, ptr %59, i32 0, i32 0
  store float %58, ptr %60, align 8, !tbaa !210
  %61 = load ptr, ptr %17, align 8, !tbaa !140
  %62 = getelementptr inbounds nuw %struct.dt_bauhaus_slider_data_t, ptr %61, i32 0, i32 0
  %63 = load float, ptr %62, align 8, !tbaa !210
  %64 = load ptr, ptr %17, align 8, !tbaa !140
  %65 = getelementptr inbounds nuw %struct.dt_bauhaus_slider_data_t, ptr %64, i32 0, i32 1
  store float %63, ptr %65, align 4, !tbaa !143
  %66 = load i32, ptr %15, align 4, !tbaa !13
  %67 = load ptr, ptr %17, align 8, !tbaa !140
  %68 = getelementptr inbounds nuw %struct.dt_bauhaus_slider_data_t, ptr %67, i32 0, i32 10
  store i32 %66, ptr %68, align 8, !tbaa !146
  %69 = load ptr, ptr %17, align 8, !tbaa !140
  %70 = getelementptr inbounds nuw %struct.dt_bauhaus_slider_data_t, ptr %69, i32 0, i32 15
  store ptr @.str.45, ptr %70, align 8, !tbaa !212
  %71 = load ptr, ptr %17, align 8, !tbaa !140
  %72 = getelementptr inbounds nuw %struct.dt_bauhaus_slider_data_t, ptr %71, i32 0, i32 16
  store float 1.000000e+00, ptr %72, align 8, !tbaa !149
  %73 = load ptr, ptr %17, align 8, !tbaa !140
  %74 = getelementptr inbounds nuw %struct.dt_bauhaus_slider_data_t, ptr %73, i32 0, i32 17
  store float 0.000000e+00, ptr %74, align 4, !tbaa !264
  %75 = load ptr, ptr %17, align 8, !tbaa !140
  %76 = getelementptr inbounds nuw %struct.dt_bauhaus_slider_data_t, ptr %75, i32 0, i32 12
  store i32 0, ptr %76, align 8, !tbaa !265
  %77 = load ptr, ptr %17, align 8, !tbaa !140
  %78 = getelementptr inbounds nuw %struct.dt_bauhaus_slider_data_t, ptr %77, i32 0, i32 11
  store ptr null, ptr %78, align 8, !tbaa !266
  %79 = load ptr, ptr %17, align 8, !tbaa !140
  %80 = getelementptr inbounds nuw %struct.dt_bauhaus_slider_data_t, ptr %79, i32 0, i32 13
  store ptr null, ptr %80, align 8, !tbaa !267
  %81 = load i32, ptr %16, align 4, !tbaa !13
  %82 = load ptr, ptr %17, align 8, !tbaa !140
  %83 = getelementptr inbounds nuw %struct.dt_bauhaus_slider_data_t, ptr %82, i32 0, i32 14
  %84 = trunc i32 %81 to i8
  %85 = load i8, ptr %83, align 8
  %86 = and i8 %84, 1
  %87 = and i8 %85, -2
  %88 = or i8 %87, %86
  store i8 %88, ptr %83, align 8
  %89 = load ptr, ptr %17, align 8, !tbaa !140
  %90 = getelementptr inbounds nuw %struct.dt_bauhaus_slider_data_t, ptr %89, i32 0, i32 18
  %91 = load i8, ptr %90, align 8
  %92 = and i8 %91, -2
  %93 = or i8 %92, 0
  store i8 %93, ptr %90, align 8
  %94 = load ptr, ptr %17, align 8, !tbaa !140
  %95 = getelementptr inbounds nuw %struct.dt_bauhaus_slider_data_t, ptr %94, i32 0, i32 18
  %96 = load i8, ptr %95, align 8
  %97 = and i8 %96, -3
  %98 = or i8 %97, 0
  store i8 %98, ptr %95, align 8
  %99 = load ptr, ptr %17, align 8, !tbaa !140
  %100 = getelementptr inbounds nuw %struct.dt_bauhaus_slider_data_t, ptr %99, i32 0, i32 19
  store i32 0, ptr %100, align 4, !tbaa !268
  %101 = load ptr, ptr %17, align 8, !tbaa !140
  %102 = getelementptr inbounds nuw %struct.dt_bauhaus_slider_data_t, ptr %101, i32 0, i32 20
  store ptr @_default_linear_curve, ptr %102, align 8, !tbaa !209
  %103 = load ptr, ptr %9, align 8, !tbaa !17
  %104 = call i64 @gtk_widget_get_type() #14
  %105 = call ptr @g_type_check_instance_cast(ptr noundef %103, i64 noundef %104)
  call void @gtk_widget_set_name(ptr noundef %105, ptr noundef @.str.46)
  %106 = load ptr, ptr %9, align 8, !tbaa !17
  %107 = call i64 @gtk_widget_get_type() #14
  %108 = call ptr @g_type_check_instance_cast(ptr noundef %106, i64 noundef %107)
  call void @llvm.lifetime.end.p0(i64 8, ptr %17) #13
  ret ptr %108
}