; Function Attrs: nounwind uwtable
define ptr @dt_bauhaus_slider_from_widget(ptr noundef initializes((40, 44), (48, 56), (408, 452), (456, 468), (472, 480), (488, 504), (508, 520)) %0, ptr noundef %1, float noundef %2, float noundef %3, float noundef %4, float noundef %5, i32 noundef %6, i32 noundef %7) local_unnamed_addr #0 {
  %9 = getelementptr inbounds nuw i8, ptr %0, i64 40
  store i32 1, ptr %9, align 8, !tbaa !105
  %10 = getelementptr inbounds nuw i8, ptr %0, i64 48
  store ptr %1, ptr %10, align 8, !tbaa !161
  %11 = getelementptr inbounds nuw i8, ptr %0, i64 408
  %12 = getelementptr inbounds nuw i8, ptr %0, i64 440
  store float %2, ptr %12, align 8, !tbaa !170
  %13 = getelementptr inbounds nuw i8, ptr %0, i64 432
  store float %2, ptr %13, align 8, !tbaa !171
  %14 = getelementptr inbounds nuw i8, ptr %0, i64 424
  store float %2, ptr %14, align 8, !tbaa !121
  %15 = getelementptr inbounds nuw i8, ptr %0, i64 444
  store float %3, ptr %15, align 4, !tbaa !172
  %16 = getelementptr inbounds nuw i8, ptr %0, i64 436
  store float %3, ptr %16, align 4, !tbaa !173
  %17 = getelementptr inbounds nuw i8, ptr %0, i64 428
  store float %3, ptr %17, align 4, !tbaa !120
  %18 = getelementptr inbounds nuw i8, ptr %0, i64 416
  store float %4, ptr %18, align 8, !tbaa !217
  %19 = getelementptr inbounds nuw i8, ptr %0, i64 420
  store float %5, ptr %19, align 4, !tbaa !175
  %20 = fsub reassoc nsz arcp contract afn float %5, %2
  %21 = fsub reassoc nsz arcp contract afn float %3, %2
  %22 = fdiv reassoc nsz arcp contract afn float %20, %21
  store float %22, ptr %11, align 8, !tbaa !143
  %23 = getelementptr inbounds nuw i8, ptr %0, i64 412
  store float %22, ptr %23, align 4, !tbaa !116
  %24 = getelementptr inbounds nuw i8, ptr %0, i64 448
  store i32 %6, ptr %24, align 8, !tbaa !119
  %25 = getelementptr inbounds nuw i8, ptr %0, i64 488
  store ptr @.str.45, ptr %25, align 8, !tbaa !174
  %26 = getelementptr inbounds nuw i8, ptr %0, i64 496
  store float 1.000000e+00, ptr %26, align 8, !tbaa !122
  %27 = getelementptr inbounds nuw i8, ptr %0, i64 500
  store float 0.000000e+00, ptr %27, align 4, !tbaa !218
  %28 = getelementptr inbounds nuw i8, ptr %0, i64 464
  store i32 0, ptr %28, align 8, !tbaa !219
  %29 = getelementptr inbounds nuw i8, ptr %0, i64 456
  store ptr null, ptr %29, align 8, !tbaa !220
  %30 = getelementptr inbounds nuw i8, ptr %0, i64 472
  store ptr null, ptr %30, align 8, !tbaa !221
  %31 = getelementptr inbounds nuw i8, ptr %0, i64 480
  %32 = trunc i32 %7 to i8
  %33 = load i8, ptr %31, align 8
  %34 = and i8 %32, 1
  %35 = and i8 %33, -2
  %36 = or disjoint i8 %35, %34
  store i8 %36, ptr %31, align 8
  %37 = getelementptr inbounds nuw i8, ptr %0, i64 504
  %38 = load i8, ptr %37, align 8
  %39 = and i8 %38, -4
  store i8 %39, ptr %37, align 8
  %40 = getelementptr inbounds nuw i8, ptr %0, i64 508
  store i32 0, ptr %40, align 4, !tbaa !222
  %41 = getelementptr inbounds nuw i8, ptr %0, i64 512
  store ptr @_default_linear_curve, ptr %41, align 8, !tbaa !142
  %42 = tail call i64 @gtk_widget_get_type() #20
  %43 = tail call ptr @g_type_check_instance_cast(ptr noundef %0, i64 noundef %42) #19
  tail call void @gtk_widget_set_name(ptr noundef %43, ptr noundef nonnull @.str.46) #19
  %44 = tail call ptr @g_type_check_instance_cast(ptr noundef %0, i64 noundef %42) #19
  ret ptr %44
}